target datalayout = "e-m:e-p270:32:32-p271:32:32-p272:64:64-i64:64-i128:128-f80:128-n8:16:32:64-S128"
target triple = "x86_64-pc-linux-gnu"

%struct.G726Tables = type { ptr, ptr, ptr, ptr }
%struct.AVCodecContext = type { ptr, i32, i32, ptr, i32, i32, ptr, ptr, ptr, i64, i32, i32, ptr, i32, %struct.AVRational, %struct.AVRational, %struct.AVRational, i32, i32, i32, i32, i32, %struct.AVRational, i32, i32, i32, i32, i32, i32, i32, i32, i32, i32, i32, ptr, ptr, i32, float, float, float, float, float, float, float, float, float, i32, i32, i32, i32, i32, i32, i32, i32, i32, i32, i32, i32, ptr, ptr, ptr, i32, i32, i32, i32, i32, i32, i32, i32, i32, i32, %struct.AVChannelLayout, i32, i32, i32, i32, i32, i32, i32, i32, ptr, i32, i32, i32, float, float, i32, i32, i32, i32, i32, ptr, i64, i64, float, float, i32, i32, ptr, ptr, i32, i32, i32, i32, i32, ptr, ptr, ptr, ptr, i32, i32, [8 x i64], i32, i32, i32, i32, i32, i32, i32, ptr, ptr, i32, i32, i32, i32, i32, i32, i32, i32, i32, i32, ptr, ptr, i32, i32, ptr, ptr, ptr, ptr, i32, i32, i64, i32, i32, i64, ptr, i64, ptr, i32, ptr, i32 }
%struct.AVRational = type { i32, i32 }
%struct.AVChannelLayout = type { i32, i32, %union.anon.1, ptr }
%union.anon.1 = type { i64 }
%struct.AVCodec = type { ptr, ptr, i32, i32, i32, i8, ptr, ptr, ptr, ptr, ptr, ptr, ptr, ptr }
%struct.G726Context = type { ptr, %struct.G726Tables, [2 x %struct.Float11], [6 x %struct.Float11], [2 x i32], [6 x i32], [2 x i32], i32, i32, i32, i32, i32, i32, i32, i32, i32, i32, i32 }
%struct.Float11 = type { i8, i8, i8 }

@.str.2 = private unnamed_addr constant [7 x i8] c"g726le\00", align 1
@.str.12 = private unnamed_addr constant [140 x i8] c"Sample rates other than 8kHz are not allowed when the compliance level is higher than unofficial. Resample or reduce the compliance level.\0A\00", align 1
@.str.13 = private unnamed_addr constant [24 x i8] c"Invalid sample rate %d\0A\00", align 1
@.str.14 = private unnamed_addr constant [24 x i8] c"Only mono is supported\0A\00", align 1

; Function Attrs: alwaysinline nounwind willreturn memory(none) uwtable
define internal i32 @av_clip_c(i32 noundef %0, i32 noundef %1, i32 noundef %2) #5 {
  %4 = alloca i32, align 4
  %5 = alloca i32, align 4
  %6 = alloca i32, align 4
  %7 = alloca i32, align 4
  store i32 %0, ptr %5, align 4, !tbaa !46
  store i32 %1, ptr %6, align 4, !tbaa !46
  store i32 %2, ptr %7, align 4, !tbaa !46
  %8 = load i32, ptr %5, align 4, !tbaa !46
  %9 = load i32, ptr %6, align 4, !tbaa !46
  %10 = icmp slt i32 %8, %9
  br i1 %10, label %11, label %13

11:                                               ; preds = %3
  %12 = load i32, ptr %6, align 4, !tbaa !46
  store i32 %12, ptr %4, align 4
  br label %21

13:                                               ; preds = %3
  %14 = load i32, ptr %5, align 4, !tbaa !46
  %15 = load i32, ptr %7, align 4, !tbaa !46
  %16 = icmp sgt i32 %14, %15
  br i1 %16, label %17, label %19

17:                                               ; preds = %13
  %18 = load i32, ptr %7, align 4, !tbaa !46
  store i32 %18, ptr %4, align 4
  br label %21

19:                                               ; preds = %13
  %20 = load i32, ptr %5, align 4, !tbaa !46
  store i32 %20, ptr %4, align 4
  br label %21

21:                                               ; preds = %19, %17, %11
  %22 = load i32, ptr %4, align 4
  ret i32 %22
}

; Function Attrs: cold nounwind optsize uwtable
define internal i32 @g726_encode_init(ptr noundef %0) #0 {
  %2 = alloca i32, align 4
  %3 = alloca ptr, align 8
  %4 = alloca ptr, align 8
  %5 = alloca i32, align 4
  %6 = alloca [4 x i32], align 4
  store ptr %0, ptr %3, align 8, !tbaa !4
  call void @llvm.lifetime.start.p0(i64 8, ptr %4) #11
  %7 = load ptr, ptr %3, align 8, !tbaa !4
  %8 = getelementptr inbounds nuw %struct.AVCodecContext, ptr %7, i32 0, i32 6
  %9 = load ptr, ptr %8, align 8, !tbaa !9
  store ptr %9, ptr %4, align 8, !tbaa !29
  %10 = load ptr, ptr %3, align 8, !tbaa !4
  %11 = getelementptr inbounds nuw %struct.AVCodecContext, ptr %10, i32 0, i32 3
  %12 = load ptr, ptr %11, align 8, !tbaa !31
  %13 = getelementptr inbounds nuw %struct.AVCodec, ptr %12, i32 0, i32 0
  %14 = load ptr, ptr %13, align 8, !tbaa !32
  %15 = call i32 @strcmp(ptr noundef %14, ptr noundef @.str.2) #12
  %16 = icmp ne i32 %15, 0
  %17 = xor i1 %16, true
  %18 = zext i1 %17 to i32
  %19 = load ptr, ptr %4, align 8, !tbaa !29
  %20 = getelementptr inbounds nuw %struct.G726Context, ptr %19, i32 0, i32 17
  store i32 %18, ptr %20, align 8, !tbaa !37
  %21 = load ptr, ptr %3, align 8, !tbaa !4
  %22 = getelementptr inbounds nuw %struct.AVCodecContext, ptr %21, i32 0, i32 101
  %23 = load i32, ptr %22, align 4, !tbaa !40
  %24 = icmp sgt i32 %23, -1
  br i1 %24, label %25, label %32

25:                                               ; preds = %1
  %26 = load ptr, ptr %3, align 8, !tbaa !4
  %27 = getelementptr inbounds nuw %struct.AVCodecContext, ptr %26, i32 0, i32 69
  %28 = load i32, ptr %27, align 8, !tbaa !41
  %29 = icmp ne i32 %28, 8000
  br i1 %29, label %30, label %32

30:                                               ; preds = %25
  %31 = load ptr, ptr %3, align 8, !tbaa !4
  call void (ptr, i32, ptr, ...) @av_log(ptr noundef %31, i32 noundef 16, ptr noundef @.str.12)
  store i32 -22, ptr %2, align 4
  store i32 1, ptr %5, align 4
  br label %109

32:                                               ; preds = %25, %1
  %33 = load ptr, ptr %3, align 8, !tbaa !4
  %34 = getelementptr inbounds nuw %struct.AVCodecContext, ptr %33, i32 0, i32 69
  %35 = load i32, ptr %34, align 8, !tbaa !41
  %36 = icmp sle i32 %35, 0
  br i1 %36, label %37, label %42

37:                                               ; preds = %32
  %38 = load ptr, ptr %3, align 8, !tbaa !4
  %39 = load ptr, ptr %3, align 8, !tbaa !4
  %40 = getelementptr inbounds nuw %struct.AVCodecContext, ptr %39, i32 0, i32 69
  %41 = load i32, ptr %40, align 8, !tbaa !41
  call void (ptr, i32, ptr, ...) @av_log(ptr noundef %38, i32 noundef 16, ptr noundef @.str.13, i32 noundef %41)
  store i32 -22, ptr %2, align 4
  store i32 1, ptr %5, align 4
  br label %109

42:                                               ; preds = %32
  %43 = load ptr, ptr %3, align 8, !tbaa !4
  %44 = getelementptr inbounds nuw %struct.AVCodecContext, ptr %43, i32 0, i32 71
  %45 = getelementptr inbounds nuw %struct.AVChannelLayout, ptr %44, i32 0, i32 1
  %46 = load i32, ptr %45, align 4, !tbaa !42
  %47 = icmp ne i32 %46, 1
  br i1 %47, label %48, label %50

48:                                               ; preds = %42
  %49 = load ptr, ptr %3, align 8, !tbaa !4
  call void (ptr, i32, ptr, ...) @av_log(ptr noundef %49, i32 noundef 16, ptr noundef @.str.14)
  store i32 -22, ptr %2, align 4
  store i32 1, ptr %5, align 4
  br label %109

50:                                               ; preds = %42
  %51 = load ptr, ptr %3, align 8, !tbaa !4
  %52 = getelementptr inbounds nuw %struct.AVCodecContext, ptr %51, i32 0, i32 9
  %53 = load i64, ptr %52, align 8, !tbaa !43
  %54 = icmp ne i64 %53, 0
  br i1 %54, label %55, label %73

55:                                               ; preds = %50
  %56 = load ptr, ptr %3, align 8, !tbaa !4
  %57 = getelementptr inbounds nuw %struct.AVCodecContext, ptr %56, i32 0, i32 9
  %58 = load i64, ptr %57, align 8, !tbaa !43
  %59 = load ptr, ptr %3, align 8, !tbaa !4
  %60 = getelementptr inbounds nuw %struct.AVCodecContext, ptr %59, i32 0, i32 69
  %61 = load i32, ptr %60, align 8, !tbaa !41
  %62 = sdiv i32 %61, 2
  %63 = sext i32 %62 to i64
  %64 = add nsw i64 %58, %63
  %65 = load ptr, ptr %3, align 8, !tbaa !4
  %66 = getelementptr inbounds nuw %struct.AVCodecContext, ptr %65, i32 0, i32 69
  %67 = load i32, ptr %66, align 8, !tbaa !41
  %68 = sext i32 %67 to i64
  %69 = sdiv i64 %64, %68
  %70 = trunc i64 %69 to i32
  %71 = load ptr, ptr %4, align 8, !tbaa !29
  %72 = getelementptr inbounds nuw %struct.G726Context, ptr %71, i32 0, i32 16
  store i32 %70, ptr %72, align 4, !tbaa !44
  br label %73

73:                                               ; preds = %55, %50
  %74 = load ptr, ptr %4, align 8, !tbaa !29
  %75 = getelementptr inbounds nuw %struct.G726Context, ptr %74, i32 0, i32 16
  %76 = load i32, ptr %75, align 4, !tbaa !44
  %77 = call i32 @av_clip_c(i32 noundef %76, i32 noundef 2, i32 noundef 5) #13
  %78 = load ptr, ptr %4, align 8, !tbaa !29
  %79 = getelementptr inbounds nuw %struct.G726Context, ptr %78, i32 0, i32 16
  store i32 %77, ptr %79, align 4, !tbaa !44
  %80 = load ptr, ptr %4, align 8, !tbaa !29
  %81 = getelementptr inbounds nuw %struct.G726Context, ptr %80, i32 0, i32 16
  %82 = load i32, ptr %81, align 4, !tbaa !44
  %83 = load ptr, ptr %3, align 8, !tbaa !4
  %84 = getelementptr inbounds nuw %struct.AVCodecContext, ptr %83, i32 0, i32 69
  %85 = load i32, ptr %84, align 8, !tbaa !41
  %86 = mul nsw i32 %82, %85
  %87 = sext i32 %86 to i64
  %88 = load ptr, ptr %3, align 8, !tbaa !4
  %89 = getelementptr inbounds nuw %struct.AVCodecContext, ptr %88, i32 0, i32 9
  store i64 %87, ptr %89, align 8, !tbaa !43
  %90 = load ptr, ptr %4, align 8, !tbaa !29
  %91 = getelementptr inbounds nuw %struct.G726Context, ptr %90, i32 0, i32 16
  %92 = load i32, ptr %91, align 4, !tbaa !44
  %93 = load ptr, ptr %3, align 8, !tbaa !4
  %94 = getelementptr inbounds nuw %struct.AVCodecContext, ptr %93, i32 0, i32 114
  store i32 %92, ptr %94, align 8, !tbaa !45
  %95 = load ptr, ptr %4, align 8, !tbaa !29
  %96 = call i32 @g726_reset(ptr noundef %95) #14
  store i32 4096, ptr %6, align 4, !tbaa !46
  %97 = getelementptr inbounds i32, ptr %6, i64 1
  store i32 2736, ptr %97, align 4, !tbaa !46
  %98 = getelementptr inbounds i32, ptr %6, i64 2
  store i32 2048, ptr %98, align 4, !tbaa !46
  %99 = getelementptr inbounds i32, ptr %6, i64 3
  store i32 1640, ptr %99, align 4, !tbaa !46
  %100 = load ptr, ptr %4, align 8, !tbaa !29
  %101 = getelementptr inbounds nuw %struct.G726Context, ptr %100, i32 0, i32 16
  %102 = load i32, ptr %101, align 4, !tbaa !44
  %103 = sub nsw i32 %102, 2
  %104 = sext i32 %103 to i64
  %105 = getelementptr inbounds [4 x i32], ptr %6, i64 0, i64 %104
  %106 = load i32, ptr %105, align 4, !tbaa !46
  %107 = load ptr, ptr %3, align 8, !tbaa !4
  %108 = getelementptr inbounds nuw %struct.AVCodecContext, ptr %107, i32 0, i32 72
  store i32 %106, ptr %108, align 8, !tbaa !47
  store i32 0, ptr %2, align 4
  store i32 1, ptr %5, align 4
  br label %109

109:                                              ; preds = %73, %48, %37, %30
  call void @llvm.lifetime.end.p0(i64 8, ptr %4) #11
  %110 = load i32, ptr %2, align 4
  ret i32 %110
}