; Function Attrs: cold nounwind optsize uwtable
define internal range(i32 -22, 1) i32 @g726_encode_init(ptr noundef %0) #0 {
  %2 = alloca [4 x i32], align 4
  %3 = getelementptr inbounds nuw i8, ptr %0, i64 32
  %4 = load ptr, ptr %3, align 8, !tbaa !4
  %5 = getelementptr inbounds nuw i8, ptr %0, i64 16
  %6 = load ptr, ptr %5, align 8, !tbaa !27
  %7 = load ptr, ptr %6, align 8, !tbaa !28
  %8 = tail call i32 @strcmp(ptr noundef nonnull dereferenceable(1) %7, ptr noundef nonnull dereferenceable(7) @.str.2) #13
  %.not = icmp eq i32 %8, 0
  %9 = zext i1 %.not to i32
  %10 = getelementptr inbounds nuw i8, ptr %4, i64 144
  store i32 %9, ptr %10, align 8, !tbaa !33
  %11 = getelementptr inbounds nuw i8, ptr %0, i64 516
  %12 = load i32, ptr %11, align 4, !tbaa !36
  %13 = icmp sgt i32 %12, -1
  %14 = getelementptr inbounds nuw i8, ptr %0, i64 344
  %15 = load i32, ptr %14, align 8, !tbaa !37
  br i1 %13, label %16, label %18

16:                                               ; preds = %1
  %.not28 = icmp eq i32 %15, 8000
  br i1 %.not28, label %.thread, label %17

17:                                               ; preds = %16
  tail call void (ptr, i32, ptr, ...) @av_log(ptr noundef nonnull %0, i32 noundef 16, ptr noundef nonnull @.str.12) #14
  br label %52

18:                                               ; preds = %1
  %19 = icmp slt i32 %15, 1
  br i1 %19, label %20, label %.thread

20:                                               ; preds = %18
  tail call void (ptr, i32, ptr, ...) @av_log(ptr noundef nonnull %0, i32 noundef 16, ptr noundef nonnull @.str.13, i32 noundef %15) #14
  br label %52

.thread:                                          ; preds = %16, %18
  %21 = phi i32 [ %15, %18 ], [ 8000, %16 ]
  %22 = getelementptr inbounds nuw i8, ptr %0, i64 356
  %23 = load i32, ptr %22, align 4, !tbaa !38
  %.not29 = icmp eq i32 %23, 1
  br i1 %.not29, label %25, label %24

24:                                               ; preds = %.thread
  tail call void (ptr, i32, ptr, ...) @av_log(ptr noundef nonnull %0, i32 noundef 16, ptr noundef nonnull @.str.14) #14
  br label %52

25:                                               ; preds = %.thread
  %26 = getelementptr inbounds nuw i8, ptr %0, i64 56
  %27 = load i64, ptr %26, align 8, !tbaa !39
  %.not30 = icmp eq i64 %27, 0
  br i1 %.not30, label %._crit_edge31, label %28

._crit_edge31:                                    ; preds = %25
  %.phi.trans.insert32 = getelementptr inbounds nuw i8, ptr %4, i64 140
  %.pre33 = load i32, ptr %.phi.trans.insert32, align 4, !tbaa !40
  br label %35

28:                                               ; preds = %25
  %29 = lshr i32 %21, 1
  %30 = zext nneg i32 %29 to i64
  %31 = add nsw i64 %27, %30
  %32 = zext nneg i32 %21 to i64
  %33 = sdiv i64 %31, %32
  %34 = trunc i64 %33 to i32
  br label %35

35:                                               ; preds = %._crit_edge31, %28
  %36 = phi i32 [ %.pre33, %._crit_edge31 ], [ %34, %28 ]
  %37 = getelementptr inbounds nuw i8, ptr %4, i64 140
  %38 = tail call i32 @llvm.smax.i32(i32 %36, i32 2)
  %39 = tail call i32 @llvm.umin.i32(i32 %38, i32 5)
  store i32 %39, ptr %37, align 4, !tbaa !40
  %40 = mul nuw nsw i32 %39, %21
  %41 = zext nneg i32 %40 to i64
  store i64 %41, ptr %26, align 8, !tbaa !39
  %42 = getelementptr inbounds nuw i8, ptr %0, i64 648
  store i32 %39, ptr %42, align 8, !tbaa !41
  tail call fastcc void @g726_reset(ptr noundef nonnull %4) #15
  store i32 4096, ptr %2, align 4, !tbaa !42
  %43 = getelementptr inbounds nuw i8, ptr %2, i64 4
  store i32 2736, ptr %43, align 4, !tbaa !42
  %44 = getelementptr inbounds nuw i8, ptr %2, i64 8
  store i32 2048, ptr %44, align 4, !tbaa !42
  %45 = getelementptr inbounds nuw i8, ptr %2, i64 12
  store i32 1640, ptr %45, align 4, !tbaa !42
  %46 = load i32, ptr %37, align 4, !tbaa !40
  %47 = add nsw i32 %46, -2
  %48 = sext i32 %47 to i64
  %49 = getelementptr inbounds [4 x i32], ptr %2, i64 0, i64 %48
  %50 = load i32, ptr %49, align 4, !tbaa !42
  %51 = getelementptr inbounds nuw i8, ptr %0, i64 376
  store i32 %50, ptr %51, align 8, !tbaa !43
  br label %52

52:                                               ; preds = %35, %24, %20, %17
  %.0 = phi i32 [ -22, %17 ], [ -22, %20 ], [ -22, %24 ], [ 0, %35 ]
  ret i32 %.0
}